; ModuleID = '38/1486.c'
source_filename = "38/1486.c"
target datalayout = "e-m:e-p270:32:32-p271:32:32-p272:64:64-i64:64-f80:128-n8:16:32:64-S128"
target triple = "x86_64-pc-linux-gnu"

@.str = private unnamed_addr constant [3 x i8] c"%d\00", align 1
@.str.1 = private unnamed_addr constant [5 x i8] c"%lf \00", align 1
@.str.2 = private unnamed_addr constant [7 x i8] c"%.5lf\0A\00", align 1

; Function Attrs: noinline nounwind uwtable
define dso_local i32 @main() #0 {
  %1 = alloca i32, align 4
  %2 = alloca i32, align 4
  %3 = alloca i32, align 4
  %4 = alloca i32, align 4
  %5 = alloca i32, align 4
  %6 = alloca [100 x double], align 16
  %7 = alloca double*, align 8
  %8 = alloca double, align 8
  %9 = alloca double, align 8
  store i32 0, i32* %1, align 4
  %10 = call i32 (i8*, ...) @__isoc99_scanf(i8* getelementptr inbounds ([3 x i8], [3 x i8]* @.str, i64 0, i64 0), i32* %2)
  store i32 0, i32* %3, align 4
  br label %11

11:                                               ; preds = %86, %0
  %12 = load i32, i32* %3, align 4
  %13 = load i32, i32* %2, align 4
  %14 = icmp slt i32 %12, %13
  br i1 %14, label %15, label %89

15:                                               ; preds = %11
  store double 0.000000e+00, double* %8, align 8
  store double 0.000000e+00, double* %9, align 8
  %16 = getelementptr inbounds [100 x double], [100 x double]* %6, i64 0, i64 0
  store double* %16, double** %7, align 8
  %17 = call i32 (i8*, ...) @__isoc99_scanf(i8* getelementptr inbounds ([3 x i8], [3 x i8]* @.str, i64 0, i64 0), i32* %4)
  store i32 0, i32* %5, align 4
  br label %18

18:                                               ; preds = %28, %15
  %19 = load i32, i32* %5, align 4
  %20 = load i32, i32* %4, align 4
  %21 = icmp slt i32 %19, %20
  br i1 %21, label %22, label %31

22:                                               ; preds = %18
  %23 = load double*, double** %7, align 8
  %24 = load i32, i32* %5, align 4
  %25 = sext i32 %24 to i64
  %26 = getelementptr inbounds double, double* %23, i64 %25
  %27 = call i32 (i8*, ...) @__isoc99_scanf(i8* getelementptr inbounds ([5 x i8], [5 x i8]* @.str.1, i64 0, i64 0), double* %26)
  br label %28

28:                                               ; preds = %22
  %29 = load i32, i32* %5, align 4
  %30 = add nsw i32 %29, 1
  store i32 %30, i32* %5, align 4
  br label %18

31:                                               ; preds = %18
  store i32 0, i32* %5, align 4
  br label %32

32:                                               ; preds = %44, %31
  %33 = load i32, i32* %5, align 4
  %34 = load i32, i32* %4, align 4
  %35 = icmp slt i32 %33, %34
  br i1 %35, label %36, label %47

36:                                               ; preds = %32
  %37 = load double*, double** %7, align 8
  %38 = load i32, i32* %5, align 4
  %39 = sext i32 %38 to i64
  %40 = getelementptr inbounds double, double* %37, i64 %39
  %41 = load double, double* %40, align 8
  %42 = load double, double* %9, align 8
  %43 = fadd double %42, %41
  store double %43, double* %9, align 8
  br label %44

44:                                               ; preds = %36
  %45 = load i32, i32* %5, align 4
  %46 = add nsw i32 %45, 1
  store i32 %46, i32* %5, align 4
  br label %32

47:                                               ; preds = %32
  %48 = load double, double* %9, align 8
  %49 = load i32, i32* %4, align 4
  %50 = sitofp i32 %49 to double
  %51 = fdiv double %48, %50
  store double %51, double* %9, align 8
  store i32 0, i32* %5, align 4
  br label %52

52:                                               ; preds = %74, %47
  %53 = load i32, i32* %5, align 4
  %54 = load i32, i32* %4, align 4
  %55 = icmp slt i32 %53, %54
  br i1 %55, label %56, label %77

56:                                               ; preds = %52
  %57 = load double*, double** %7, align 8
  %58 = load i32, i32* %5, align 4
  %59 = sext i32 %58 to i64
  %60 = getelementptr inbounds double, double* %57, i64 %59
  %61 = load double, double* %60, align 8
  %62 = load double, double* %9, align 8
  %63 = fsub double %61, %62
  %64 = load double*, double** %7, align 8
  %65 = load i32, i32* %5, align 4
  %66 = sext i32 %65 to i64
  %67 = getelementptr inbounds double, double* %64, i64 %66
  %68 = load double, double* %67, align 8
  %69 = load double, double* %9, align 8
  %70 = fsub double %68, %69
  %71 = fmul double %63, %70
  %72 = load double, double* %8, align 8
  %73 = fadd double %72, %71
  store double %73, double* %8, align 8
  br label %74

74:                                               ; preds = %56
  %75 = load i32, i32* %5, align 4
  %76 = add nsw i32 %75, 1
  store i32 %76, i32* %5, align 4
  br label %52

77:                                               ; preds = %52
  %78 = load double, double* %8, align 8
  %79 = load i32, i32* %4, align 4
  %80 = sitofp i32 %79 to double
  %81 = fdiv double %78, %80
  store double %81, double* %8, align 8
  %82 = load double, double* %8, align 8
  %83 = call double @pow(double %82, double 5.000000e-01) #3
  store double %83, double* %8, align 8
  %84 = load double, double* %8, align 8
  %85 = call i32 (i8*, ...) @printf(i8* getelementptr inbounds ([7 x i8], [7 x i8]* @.str.2, i64 0, i64 0), double %84)
  br label %86

86:                                               ; preds = %77
  %87 = load i32, i32* %3, align 4
  %88 = add nsw i32 %87, 1
  store i32 %88, i32* %3, align 4
  br label %11

89:                                               ; preds = %11
  ret i32 0
}

declare dso_local i32 @__isoc99_scanf(i8*, ...) #1

; Function Attrs: nounwind
declare dso_local double @pow(double, double) #2

declare dso_local i32 @printf(i8*, ...) #1


!llvm.module.flags = !{!0}
!llvm.ident = !{!1}

!0 = !{i32 1, !"wchar_size", i32 4}
!1 = !{!"clang version 10.0.0-4ubuntu1 "}
